target datalayout = "e-m:e-p270:32:32-p271:32:32-p272:64:64-i64:64-i128:128-f80:128-n8:16:32:64-S128"
target triple = "x86_64-unknown-linux-gnu"

@.str.107 = private unnamed_addr constant [5 x i8] c"text\00", align 1
@.str.108 = private unnamed_addr constant [8 x i8] c"hexdump\00", align 1

; Function Attrs: nounwind sspstrong uwtable
define internal i32 @parse_application_data_format(ptr noundef %in, ptr noundef %out) #0 {
entry:
  %retval = alloca i32, align 4
  %in.addr = alloca ptr, align 8
  %out.addr = alloca ptr, align 8
  store ptr %in, ptr %in.addr, align 8
  store ptr %out, ptr %out.addr, align 8
  %0 = load ptr, ptr %in.addr, align 8
  %call = call i32 @strcmp(ptr noundef %0, ptr noundef @.str.108) #9
  %cmp = icmp eq i32 0, %call
  br i1 %cmp, label %if.then, label %if.else

if.then:                                          ; preds = %entry
  %1 = load ptr, ptr %out.addr, align 8
  store i32 1, ptr %1, align 4
  br label %if.end5

if.else:                                          ; preds = %entry
  %2 = load ptr, ptr %in.addr, align 8
  %call1 = call i32 @strcmp(ptr noundef %2, ptr noundef @.str.107) #9
  %cmp2 = icmp eq i32 0, %call1
  br i1 %cmp2, label %if.then3, label %if.else4

if.then3:                                         ; preds = %if.else
  %3 = load ptr, ptr %out.addr, align 8
  store i32 0, ptr %3, align 4
  br label %if.end

if.else4:                                         ; preds = %if.else
  store i32 0, ptr %retval, align 4
  br label %return

if.end:                                           ; preds = %if.then3
  br label %if.end5

if.end5:                                          ; preds = %if.end, %if.then
  store i32 1, ptr %retval, align 4
  br label %return

return:                                           ; preds = %if.end5, %if.else4
  %4 = load i32, ptr %retval, align 4
  ret i32 %4
}