; Function Attrs: mustprogress nofree nounwind sspstrong willreturn memory(argmem: readwrite) uwtable
define internal fastcc range(i32 0, 2) i32 @parse_application_data_format(ptr noundef readonly captures(none) %in, ptr noundef writeonly captures(none) %out) unnamed_addr #8 {
entry:
  %call = tail call i32 @strcmp(ptr noundef nonnull dereferenceable(1) %in, ptr noundef nonnull dereferenceable(8) @.str.108) #21
  %cmp = icmp eq i32 %call, 0
  br i1 %cmp, label %if.end5, label %if.else

if.else:                                          ; preds = %entry
  %call1 = tail call i32 @strcmp(ptr noundef nonnull dereferenceable(1) %in, ptr noundef nonnull dereferenceable(5) @.str.107) #21
  %cmp2 = icmp eq i32 %call1, 0
  br i1 %cmp2, label %if.end5, label %return

if.end5:                                          ; preds = %if.else, %entry
  %storemerge = phi i32 [ 1, %entry ], [ 0, %if.else ]
  store i32 %storemerge, ptr %out, align 4
  br label %return

return:                                           ; preds = %if.else, %if.end5
  %retval.0 = phi i32 [ 1, %if.end5 ], [ 0, %if.else ]
  ret i32 %retval.0
}